target datalayout = "e-m:e-p270:32:32-p271:32:32-p272:64:64-i64:64-i128:128-f80:128-n8:16:32:64-S128"
target triple = "x86_64-pc-linux-gnu"

@.str.1 = private unnamed_addr constant [12 x i8] c"xlogfuncs.c\00", align 1
@.str.20 = private unnamed_addr constant [28 x i8] c"recovery is not in progress\00", align 1
@.str.21 = private unnamed_addr constant [65 x i8] c"Recovery control functions can only be executed during recovery.\00", align 1
@__func__.pg_is_wal_replay_paused = private unnamed_addr constant [24 x i8] c"pg_is_wal_replay_paused\00", align 1

; Function Attrs: inlinehint nounwind uwtable
define internal i64 @BoolGetDatum(i1 noundef zeroext %0) #3 {
  %2 = alloca i8, align 1
  %3 = zext i1 %0 to i8
  store i8 %3, ptr %2, align 1
  %4 = load i8, ptr %2, align 1, !range !4, !noundef !5
  %5 = trunc i8 %4 to i1
  %6 = select i1 %5, i32 1, i32 0
  %7 = sext i32 %6 to i64
  ret i64 %7
}

; Function Attrs: nounwind uwtable
define dso_local i64 @pg_is_wal_replay_paused(ptr noundef %0) #0 {
  %2 = alloca ptr, align 8
  store ptr %0, ptr %2, align 8
  %3 = call zeroext i1 @RecoveryInProgress()
  br i1 %3, label %16, label %4

4:                                                ; preds = %1
  br label %5

5:                                                ; preds = %4
  br i1 true, label %6, label %8

6:                                                ; preds = %5
  %7 = call zeroext i1 @errstart_cold(i32 noundef 21, ptr noundef null) #10
  br i1 %7, label %10, label %14

8:                                                ; preds = %5
  %9 = call zeroext i1 @errstart(i32 noundef 21, ptr noundef null)
  br i1 %9, label %10, label %14

10:                                               ; preds = %8, %6
  %11 = call i32 @errcode(i32 noundef 325)
  %12 = call i32 (ptr, ...) @errmsg(ptr noundef @.str.20)
  %13 = call i32 (ptr, ...) @errhint(ptr noundef @.str.21)
  call void @errfinish(ptr noundef @.str.1, i32 noundef 578, ptr noundef @__func__.pg_is_wal_replay_paused)
  br label %14

14:                                               ; preds = %10, %8, %6
  unreachable

15:                                               ; No predecessors!
  br label %16

16:                                               ; preds = %15, %1
  %17 = call i32 @GetRecoveryPauseState()
  %18 = icmp ne i32 %17, 0
  %19 = call i64 @BoolGetDatum(i1 noundef zeroext %18)
  ret i64 %19
}